; Function Attrs: nounwind uwtable
define noalias noundef ptr @Bac_PtrDeriveFromCba(ptr noundef %0) local_unnamed_addr #0 {
  %2 = icmp eq ptr %0, null
  br i1 %2, label %.critedge, label %3

3:                                                ; preds = %1
  %4 = getelementptr inbounds nuw i8, ptr %0, i64 128
  %5 = load ptr, ptr %4, align 8, !tbaa !102
  %6 = icmp eq ptr %5, null
  br i1 %6, label %7, label %8

7:                                                ; preds = %3
  %puts = tail call i32 @puts(ptr nonnull dereferenceable(1) @str)
  br label %.critedge

8:                                                ; preds = %3
  tail call void @Bac_ManAssignInternWordNames(ptr noundef nonnull %0) #19
  %9 = getelementptr i8, ptr %0, i64 36
  %.val16 = load i32, ptr %9, align 4, !tbaa !73
  %10 = add nsw i32 %.val16, 1
  %11 = tail call noalias dereferenceable_or_null(16) ptr @malloc(i64 noundef 16) #20
  %12 = getelementptr inbounds nuw i8, ptr %11, i64 4
  store i32 %10, ptr %11, align 8, !tbaa !36
  %.not.i = icmp eq i32 %10, 0
  br i1 %.not.i, label %Vec_PtrPush.exit.thread, label %Vec_PtrPush.exit

Vec_PtrPush.exit.thread:                          ; preds = %8
  %13 = getelementptr inbounds nuw i8, ptr %11, i64 8
  %14 = load ptr, ptr %0, align 8, !tbaa !93
  %15 = tail call noalias dereferenceable_or_null(128) ptr @malloc(i64 noundef 128) #20
  store ptr %15, ptr %13, align 8, !tbaa !32
  store i32 16, ptr %11, align 8, !tbaa !36
  store i32 1, ptr %12, align 4, !tbaa !35
  store ptr %14, ptr %15, align 8, !tbaa !34
  br label %.critedge

Vec_PtrPush.exit:                                 ; preds = %8
  %16 = sext i32 %10 to i64
  %17 = shl nsw i64 %16, 3
  %18 = tail call noalias ptr @malloc(i64 noundef %17) #20
  %19 = getelementptr inbounds nuw i8, ptr %11, i64 8
  store ptr %18, ptr %19, align 8, !tbaa !32
  %20 = load ptr, ptr %0, align 8, !tbaa !93
  store i32 1, ptr %12, align 4, !tbaa !35
  store ptr %20, ptr %18, align 8, !tbaa !34
  %.not25 = icmp slt i32 %.val16, 1
  br i1 %.not25, label %.critedge, label %Bac_ManNtk.exit.lr.ph

Bac_ManNtk.exit.lr.ph:                            ; preds = %Vec_PtrPush.exit
  %21 = getelementptr inbounds nuw i8, ptr %0, i64 40
  br label %Bac_ManNtk.exit

Bac_ManNtk.exit:                                  ; preds = %Bac_ManNtk.exit.lr.ph, %Vec_PtrPush.exit23
  %22 = phi i32 [ %10, %Bac_ManNtk.exit.lr.ph ], [ %61, %Vec_PtrPush.exit23 ]
  %23 = phi i32 [ 1, %Bac_ManNtk.exit.lr.ph ], [ %63, %Vec_PtrPush.exit23 ]
  %indvars.iv = phi i64 [ 1, %Bac_ManNtk.exit.lr.ph ], [ %indvars.iv.next, %Vec_PtrPush.exit23 ]
  %24 = load ptr, ptr %21, align 8, !tbaa !74
  %25 = getelementptr inbounds nuw %struct.Bac_Ntk_t_, ptr %24, i64 %indvars.iv
  %26 = tail call noalias dereferenceable_or_null(16) ptr @malloc(i64 noundef 16) #20
  %27 = getelementptr inbounds nuw i8, ptr %26, i64 4
  store i32 5, ptr %26, align 8, !tbaa !36
  %28 = tail call noalias dereferenceable_or_null(40) ptr @malloc(i64 noundef 40) #20
  %29 = getelementptr inbounds nuw i8, ptr %26, i64 8
  store ptr %28, ptr %29, align 8, !tbaa !32
  %.val.i = load ptr, ptr %25, align 8, !tbaa !64
  %30 = getelementptr i8, ptr %25, i64 8
  %.val10.i = load i32, ptr %30, align 8, !tbaa !97
  %31 = getelementptr i8, ptr %.val.i, i64 16
  %.val.val.i = load ptr, ptr %31, align 8, !tbaa !76
  %32 = tail call ptr @Abc_NamStr(ptr noundef %.val.val.i, i32 noundef %.val10.i) #19
  store ptr %32, ptr %28, align 8, !tbaa !34
  %33 = tail call ptr @Bac_NtkTransformToPtrInputs(ptr noundef nonnull readonly %25)
  %34 = getelementptr inbounds nuw i8, ptr %28, i64 8
  store ptr %33, ptr %34, align 8, !tbaa !34
  %35 = tail call ptr @Bac_NtkTransformToPtrOutputs(ptr noundef nonnull readonly %25)
  %36 = getelementptr inbounds nuw i8, ptr %28, i64 16
  store ptr %35, ptr %36, align 8, !tbaa !34
  %calloc.i = tail call dereferenceable_or_null(16) ptr @calloc(i64 1, i64 16)
  %37 = getelementptr inbounds nuw i8, ptr %28, i64 24
  store ptr %calloc.i, ptr %37, align 8, !tbaa !34
  %38 = tail call ptr @Bac_NtkTransformToPtrBoxes(ptr noundef nonnull readonly %25)
  store i32 5, ptr %27, align 4, !tbaa !35
  %39 = getelementptr inbounds nuw i8, ptr %28, i64 32
  store ptr %38, ptr %39, align 8, !tbaa !34
  %40 = icmp eq i32 %23, %22
  br i1 %40, label %41, label %.Vec_PtrGrow.exit11_crit_edge.i17

.Vec_PtrGrow.exit11_crit_edge.i17:                ; preds = %Bac_ManNtk.exit
  %.pre.i19 = load ptr, ptr %19, align 8, !tbaa !32
  br label %Vec_PtrPush.exit23

41:                                               ; preds = %Bac_ManNtk.exit
  %42 = icmp slt i32 %22, 16
  br i1 %42, label %43, label %50

43:                                               ; preds = %41
  %44 = load ptr, ptr %19, align 8, !tbaa !32
  %.not9.i.i21 = icmp eq ptr %44, null
  br i1 %.not9.i.i21, label %47, label %45

45:                                               ; preds = %43
  %46 = tail call dereferenceable_or_null(128) ptr @realloc(ptr noundef nonnull %44, i64 noundef 128) #21
  br label %Vec_PtrGrow.exit.i22

47:                                               ; preds = %43
  %48 = tail call noalias dereferenceable_or_null(128) ptr @malloc(i64 noundef 128) #20
  br label %Vec_PtrGrow.exit.i22

Vec_PtrGrow.exit.i22:                             ; preds = %47, %45
  %49 = phi ptr [ %46, %45 ], [ %48, %47 ]
  store ptr %49, ptr %19, align 8, !tbaa !32
  store i32 16, ptr %11, align 8, !tbaa !36
  br label %Vec_PtrPush.exit23

50:                                               ; preds = %41
  %51 = shl nuw nsw i32 %22, 1
  %52 = load ptr, ptr %19, align 8, !tbaa !32
  %.not9.i10.i20 = icmp eq ptr %52, null
  %53 = zext nneg i32 %51 to i64
  %54 = shl nuw nsw i64 %53, 3
  br i1 %.not9.i10.i20, label %57, label %55

55:                                               ; preds = %50
  %56 = tail call ptr @realloc(ptr noundef nonnull %52, i64 noundef %54) #21
  br label %59

57:                                               ; preds = %50
  %58 = tail call noalias ptr @malloc(i64 noundef %54) #20
  br label %59

59:                                               ; preds = %57, %55
  %60 = phi ptr [ %56, %55 ], [ %58, %57 ]
  store ptr %60, ptr %19, align 8, !tbaa !32
  store i32 %51, ptr %11, align 8, !tbaa !36
  br label %Vec_PtrPush.exit23

Vec_PtrPush.exit23:                               ; preds = %.Vec_PtrGrow.exit11_crit_edge.i17, %Vec_PtrGrow.exit.i22, %59
  %61 = phi i32 [ %22, %.Vec_PtrGrow.exit11_crit_edge.i17 ], [ %51, %59 ], [ 16, %Vec_PtrGrow.exit.i22 ]
  %62 = phi ptr [ %.pre.i19, %.Vec_PtrGrow.exit11_crit_edge.i17 ], [ %60, %59 ], [ %49, %Vec_PtrGrow.exit.i22 ]
  %63 = add nuw nsw i32 %23, 1
  store i32 %63, ptr %12, align 4, !tbaa !35
  %64 = zext nneg i32 %23 to i64
  %65 = getelementptr inbounds nuw ptr, ptr %62, i64 %64
  store ptr %26, ptr %65, align 8, !tbaa !34
  %indvars.iv.next = add nuw nsw i64 %indvars.iv, 1
  %.val = load i32, ptr %9, align 4, !tbaa !73
  %66 = sext i32 %.val to i64
  %.not.not = icmp slt i64 %indvars.iv, %66
  br i1 %.not.not, label %Bac_ManNtk.exit, label %.critedge, !llvm.loop !111

.critedge:                                        ; preds = %Vec_PtrPush.exit23, %Vec_PtrPush.exit.thread, %Vec_PtrPush.exit, %1, %7
  %.014 = phi ptr [ null, %7 ], [ null, %1 ], [ %11, %Vec_PtrPush.exit ], [ %11, %Vec_PtrPush.exit.thread ], [ %11, %Vec_PtrPush.exit23 ]
  ret ptr %.014
}